; Function Attrs: mustprogress uwtable
define hidden noundef ptr @_Z6mk_notR11ast_managerP4expr(ptr noundef nonnull align 8 dereferenceable(976) %0, ptr noundef %1) local_unnamed_addr #3 {
  %3 = getelementptr inbounds nuw i8, ptr %1, i64 4
  %4 = load i32, ptr %3, align 4
  %5 = and i32 %4, 65535
  %6 = icmp eq i32 %5, 0
  br i1 %6, label %7, label %25

7:                                                ; preds = %2
  %8 = getelementptr inbounds nuw i8, ptr %1, i64 16
  %9 = load ptr, ptr %8, align 8, !tbaa !52
  %10 = getelementptr inbounds nuw i8, ptr %9, i64 24
  %11 = load ptr, ptr %10, align 8, !tbaa !53
  %.not.i.i.i.i.i = icmp eq ptr %11, null
  br i1 %.not.i.i.i.i.i, label %25, label %_ZNK11ast_manager6is_notEPK4expr.exit.i

_ZNK11ast_manager6is_notEPK4expr.exit.i:          ; preds = %7
  %12 = load i32, ptr %11, align 8, !tbaa !56
  %13 = icmp eq i32 %12, 0
  %14 = getelementptr inbounds nuw i8, ptr %11, i64 4
  %15 = load i32, ptr %14, align 4
  %16 = icmp eq i32 %15, 8
  %17 = select i1 %13, i1 %16, i1 false
  br i1 %17, label %18, label %25

18:                                               ; preds = %_ZNK11ast_manager6is_notEPK4expr.exit.i
  %19 = getelementptr inbounds nuw i8, ptr %1, i64 24
  %20 = load i32, ptr %19, align 8, !tbaa !19
  %21 = icmp eq i32 %20, 1
  br i1 %21, label %22, label %25

22:                                               ; preds = %18
  %23 = getelementptr inbounds nuw i8, ptr %1, i64 32
  %24 = load ptr, ptr %23, align 8, !tbaa !3
  br label %35

25:                                               ; preds = %18, %_ZNK11ast_manager6is_notEPK4expr.exit.i, %2, %7
  %26 = getelementptr inbounds nuw i8, ptr %0, i64 856
  %27 = load ptr, ptr %26, align 8, !tbaa !60
  %28 = icmp eq ptr %1, %27
  %29 = getelementptr inbounds nuw i8, ptr %0, i64 864
  %30 = load ptr, ptr %29, align 8, !tbaa !121
  br i1 %28, label %35, label %31

31:                                               ; preds = %25
  %32 = icmp eq ptr %1, %30
  br i1 %32, label %35, label %33

33:                                               ; preds = %31
  %34 = tail call noundef ptr @_ZN11ast_manager6mk_appEiiP4expr(ptr noundef nonnull align 8 dereferenceable(976) %0, i32 noundef 0, i32 noundef 8, ptr noundef nonnull %1)
  br label %35

35:                                               ; preds = %25, %31, %33, %22
  %.0 = phi ptr [ %24, %22 ], [ %34, %33 ], [ %27, %31 ], [ %30, %25 ]
  ret ptr %.0
}